target datalayout = "e-m:e-p270:32:32-p271:32:32-p272:64:64-i64:64-i128:128-f80:128-n8:16:32:64-S128"
target triple = "x86_64-unknown-linux-gnu"

%"class.openvdb::v11_0::points::GroupHandle" = type <{ ptr, i8, [7 x i8] }>

; Function Attrs: mustprogress uwtable
define noundef zeroext i1 @_ZNK7openvdb5v11_06points11GroupHandle3getEj(ptr noundef nonnull align 8 dereferenceable(9) %this, i32 noundef %n) #4 align 2 {
entry:
  %this.addr = alloca ptr, align 8
  %n.addr = alloca i32, align 4
  store ptr %this, ptr %this.addr, align 8
  store i32 %n, ptr %n.addr, align 4
  %this1 = load ptr, ptr %this.addr, align 8
  %mArray = getelementptr inbounds %"class.openvdb::v11_0::points::GroupHandle", ptr %this1, i32 0, i32 0
  %0 = load ptr, ptr %mArray, align 8
  %1 = load i32, ptr %n.addr, align 4
  %call = call noundef zeroext i8 @_ZNK7openvdb5v11_06points19TypedAttributeArrayIhNS1_10GroupCodecEE3getEj(ptr noundef nonnull align 8 dereferenceable(40) %0, i32 noundef %1)
  %conv = zext i8 %call to i32
  %mBitMask = getelementptr inbounds %"class.openvdb::v11_0::points::GroupHandle", ptr %this1, i32 0, i32 1
  %2 = load i8, ptr %mBitMask, align 8
  %conv2 = zext i8 %2 to i32
  %and = and i32 %conv, %conv2
  %mBitMask3 = getelementptr inbounds %"class.openvdb::v11_0::points::GroupHandle", ptr %this1, i32 0, i32 1
  %3 = load i8, ptr %mBitMask3, align 8
  %conv4 = zext i8 %3 to i32
  %cmp = icmp eq i32 %and, %conv4
  ret i1 %cmp
}