; Function Attrs: mustprogress uwtable
define noundef zeroext i1 @_ZNK7openvdb5v11_06points11GroupHandle3getEj(ptr nocapture noundef nonnull readonly align 8 dereferenceable(9) %this, i32 noundef %n) local_unnamed_addr #3 align 2 {
entry:
  %0 = load ptr, ptr %this, align 8
  %call = tail call noundef zeroext i8 @_ZNK7openvdb5v11_06points19TypedAttributeArrayIhNS1_10GroupCodecEE3getEj(ptr noundef nonnull align 8 dereferenceable(40) %0, i32 noundef %n)
  %mBitMask = getelementptr inbounds i8, ptr %this, i64 8
  %1 = load i8, ptr %mBitMask, align 8
  %and1 = and i8 %1, %call
  %cmp = icmp eq i8 %and1, %1
  ret i1 %cmp
}